target datalayout = "e-m:e-p270:32:32-p271:32:32-p272:64:64-i64:64-i128:128-f80:128-n8:16:32:64-S128"
target triple = "x86_64-pc-linux-gnu"

%"class.cv::utils::trace::details::Region" = type <{ ptr, i32, [4 x i8] }>
%"class.cv::TermCriteria" = type { i32, i32, double }

; Function Attrs: mustprogress uwtable
define void @_ZN2cv17solvePnPRefineVVSERKNS_11_InputArrayES2_S2_S2_RKNS_17_InputOutputArrayES5_NS_12TermCriteriaEd(ptr noundef nonnull align 8 dereferenceable(24) %0, ptr noundef nonnull align 8 dereferenceable(24) %1, ptr noundef nonnull align 8 dereferenceable(24) %2, ptr noundef nonnull align 8 dereferenceable(24) %3, ptr noundef nonnull align 8 dereferenceable(24) %4, ptr noundef nonnull align 8 dereferenceable(24) %5, ptr noundef byval(%"class.cv::TermCriteria") align 8 %6, double noundef %7) #4 personality ptr @__gxx_personality_v0 {
  %9 = alloca ptr, align 8
  %10 = alloca ptr, align 8
  %11 = alloca ptr, align 8
  %12 = alloca ptr, align 8
  %13 = alloca ptr, align 8
  %14 = alloca ptr, align 8
  %15 = alloca double, align 8
  %16 = alloca %"class.cv::utils::trace::details::Region", align 8
  %17 = alloca %"class.cv::TermCriteria", align 8
  %18 = alloca ptr, align 8
  %19 = alloca i32, align 4
  store ptr %0, ptr %9, align 8, !tbaa !8
  store ptr %1, ptr %10, align 8, !tbaa !8
  store ptr %2, ptr %11, align 8, !tbaa !8
  store ptr %3, ptr %12, align 8, !tbaa !8
  store ptr %4, ptr %13, align 8, !tbaa !3
  store ptr %5, ptr %14, align 8, !tbaa !3
  store double %7, ptr %15, align 8, !tbaa !46
  call void @llvm.lifetime.start.p0(i64 16, ptr %16) #3
  call void @_ZN2cv5utils5trace7details6RegionC1ERKNS3_21LocationStaticStorageE(ptr noundef nonnull align 8 dereferenceable(12) %16, ptr noundef nonnull align 8 dereferenceable(32) @_ZZN2cv17solvePnPRefineVVSERKNS_11_InputArrayES2_S2_S2_RKNS_17_InputOutputArrayES5_NS_12TermCriteriaEdE25__cv_trace_location_fn808)
  %20 = load ptr, ptr %9, align 8, !tbaa !8
  %21 = load ptr, ptr %10, align 8, !tbaa !8
  %22 = load ptr, ptr %11, align 8, !tbaa !8
  %23 = load ptr, ptr %12, align 8, !tbaa !8
  %24 = load ptr, ptr %13, align 8, !tbaa !3
  %25 = load ptr, ptr %14, align 8, !tbaa !3
  call void @llvm.memcpy.p0.p0.i64(ptr align 8 %17, ptr align 8 %6, i64 16, i1 false), !tbaa.struct !182
  %26 = load double, ptr %15, align 8, !tbaa !46
  invoke void @_ZN2cvL14solvePnPRefineERKNS_11_InputArrayES2_S2_S2_RKNS_17_InputOutputArrayES5_NS_20SolvePnPRefineMethodENS_12TermCriteriaEd(ptr noundef nonnull align 8 dereferenceable(24) %20, ptr noundef nonnull align 8 dereferenceable(24) %21, ptr noundef nonnull align 8 dereferenceable(24) %22, ptr noundef nonnull align 8 dereferenceable(24) %23, ptr noundef nonnull align 8 dereferenceable(24) %24, ptr noundef nonnull align 8 dereferenceable(24) %25, i32 noundef 1, ptr noundef byval(%"class.cv::TermCriteria") align 8 %17, double noundef %26)
          to label %27 unwind label %28

27:                                               ; preds = %8
  call void @_ZN2cv5utils5trace7details6RegionD2Ev(ptr noundef nonnull align 8 dereferenceable(12) %16) #3
  call void @llvm.lifetime.end.p0(i64 16, ptr %16) #3
  ret void

28:                                               ; preds = %8
  %29 = landingpad { ptr, i32 }
          cleanup
  %30 = extractvalue { ptr, i32 } %29, 0
  store ptr %30, ptr %18, align 8
  %31 = extractvalue { ptr, i32 } %29, 1
  store i32 %31, ptr %19, align 4
  call void @_ZN2cv5utils5trace7details6RegionD2Ev(ptr noundef nonnull align 8 dereferenceable(12) %16) #3
  call void @llvm.lifetime.end.p0(i64 16, ptr %16) #3
  br label %32

32:                                               ; preds = %28
  %33 = load ptr, ptr %18, align 8
  %34 = load i32, ptr %19, align 4
  %35 = insertvalue { ptr, i32 } poison, ptr %33, 0
  %36 = insertvalue { ptr, i32 } %35, i32 %34, 1
  resume { ptr, i32 } %36
}