; Function Attrs: mustprogress uwtable
define void @_ZN2cv17solvePnPRefineVVSERKNS_11_InputArrayES2_S2_S2_RKNS_17_InputOutputArrayES5_NS_12TermCriteriaEd(ptr noundef nonnull align 8 dereferenceable(24) %0, ptr noundef nonnull align 8 dereferenceable(24) %1, ptr noundef nonnull align 8 dereferenceable(24) %2, ptr noundef nonnull align 8 dereferenceable(24) %3, ptr noundef nonnull align 8 dereferenceable(24) %4, ptr noundef nonnull align 8 dereferenceable(24) %5, ptr noundef readonly byval(%"class.cv::TermCriteria") align 8 captures(none) %6, double noundef %7) local_unnamed_addr #6 personality ptr @__gxx_personality_v0 {
  %9 = alloca %"class.cv::utils::trace::details::Region", align 8
  call void @llvm.lifetime.start.p0(i64 16, ptr nonnull %9) #26
  call void @_ZN2cv5utils5trace7details6RegionC1ERKNS3_21LocationStaticStorageE(ptr noundef nonnull align 8 dereferenceable(12) %9, ptr noundef nonnull align 8 dereferenceable(32) @_ZZN2cv17solvePnPRefineVVSERKNS_11_InputArrayES2_S2_S2_RKNS_17_InputOutputArrayES5_NS_12TermCriteriaEdE25__cv_trace_location_fn808)
  %.sroa.1.0..sroa_idx = getelementptr inbounds nuw i8, ptr %6, i64 4
  %.sroa.1.0.copyload = load i32, ptr %.sroa.1.0..sroa_idx, align 4, !tbaa !108
  %.sroa.2.0..sroa_idx = getelementptr inbounds nuw i8, ptr %6, i64 8
  %.sroa.2.0.copyload = load double, ptr %.sroa.2.0..sroa_idx, align 8, !tbaa !50
  invoke fastcc void @_ZN2cvL14solvePnPRefineERKNS_11_InputArrayES2_S2_S2_RKNS_17_InputOutputArrayES5_NS_20SolvePnPRefineMethodENS_12TermCriteriaEd(ptr noundef nonnull align 8 dereferenceable(24) %0, ptr noundef nonnull align 8 dereferenceable(24) %1, ptr noundef nonnull align 8 dereferenceable(24) %2, ptr noundef nonnull align 8 dereferenceable(24) %3, ptr noundef nonnull align 8 dereferenceable(24) %4, ptr noundef nonnull align 8 dereferenceable(24) %5, i32 noundef 1, i32 %.sroa.1.0.copyload, double %.sroa.2.0.copyload, double noundef %7)
          to label %10 unwind label %17

10:                                               ; preds = %8
  %11 = getelementptr inbounds nuw i8, ptr %9, i64 8
  %12 = load i32, ptr %11, align 8, !tbaa !52
  %.not.i = icmp eq i32 %12, 0
  br i1 %.not.i, label %_ZN2cv5utils5trace7details6RegionD2Ev.exit, label %13

13:                                               ; preds = %10
  invoke void @_ZN2cv5utils5trace7details6Region7destroyEv(ptr noundef nonnull align 8 dereferenceable(12) %9)
          to label %_ZN2cv5utils5trace7details6RegionD2Ev.exit unwind label %14

14:                                               ; preds = %13
  %15 = landingpad { ptr, i32 }
          catch ptr null
  %16 = extractvalue { ptr, i32 } %15, 0
  call void @__clang_call_terminate(ptr %16) #30
  unreachable

_ZN2cv5utils5trace7details6RegionD2Ev.exit:       ; preds = %10, %13
  call void @llvm.lifetime.end.p0(i64 16, ptr nonnull %9) #26
  ret void

17:                                               ; preds = %8
  %18 = landingpad { ptr, i32 }
          cleanup
  call void @_ZN2cv5utils5trace7details6RegionD2Ev(ptr noundef nonnull align 8 dereferenceable(12) %9) #26
  call void @llvm.lifetime.end.p0(i64 16, ptr nonnull %9) #26
  resume { ptr, i32 } %18
}